; Function Attrs: nounwind uwtable
define dso_local void @pg_wcssize(ptr noundef %0, i64 noundef %1, i32 noundef %2, ptr noundef writeonly captures(address_is_null) %3, ptr noundef writeonly captures(address_is_null) %4, ptr noundef writeonly captures(address_is_null) %5) local_unnamed_addr #0 {
  %7 = load i8, ptr %0, align 1
  %8 = icmp ne i8 %7, 0
  %9 = icmp ne i64 %1, 0
  %10 = and i1 %8, %9
  br i1 %10, label %.lr.ph, label %._crit_edge

.lr.ph:                                           ; preds = %6, %.loopexit
  %.079 = phi i32 [ %.2, %.loopexit ], [ 0, %6 ]
  %.05178 = phi i32 [ %.152, %.loopexit ], [ 1, %6 ]
  %.05377 = phi i32 [ %.255, %.loopexit ], [ 0, %6 ]
  %.05676 = phi i32 [ %.258, %.loopexit ], [ 0, %6 ]
  %.05975 = phi ptr [ %44, %.loopexit ], [ %0, %6 ]
  %.06074 = phi i64 [ %43, %.loopexit ], [ %1, %6 ]
  %11 = tail call i32 @PQmblen(ptr noundef nonnull %.05975, i32 noundef %2) #6
  %12 = sext i32 %11 to i64
  %13 = icmp ult i64 %.06074, %12
  br i1 %13, label %._crit_edge.loopexit, label %14

14:                                               ; preds = %.lr.ph
  %15 = tail call i32 @PQdsplen(ptr noundef nonnull %.05975, i32 noundef %2) #6
  %16 = icmp eq i32 %11, 1
  br i1 %16, label %17, label %35

17:                                               ; preds = %14
  %18 = load i8, ptr %.05975, align 1
  switch i8 %18, label %27 [
    i8 10, label %21
    i8 13, label %24
    i8 9, label %.preheader.preheader
  ]

.preheader.preheader:                             ; preds = %17
  %19 = or i32 %.05676, -8
  %sub = sub i32 %.05676, %19
  %20 = or i32 %.05676, -8
  %sub89 = sub i32 %.079, %20
  br label %.loopexit

21:                                               ; preds = %17
  %spec.select = tail call i32 @llvm.smax.i32(i32 %.05676, i32 %.05377)
  %22 = add i32 %.05178, 1
  %23 = add i32 %.079, 1
  br label %.loopexit

24:                                               ; preds = %17
  %25 = add i32 %.05676, 2
  %26 = add i32 %.079, 2
  br label %.loopexit

27:                                               ; preds = %17
  %28 = icmp slt i32 %15, 0
  br i1 %28, label %29, label %32

29:                                               ; preds = %27
  %30 = add i32 %.05676, 4
  %31 = add i32 %.079, 4
  br label %.loopexit

32:                                               ; preds = %27
  %33 = add i32 %15, %.05676
  %34 = add i32 %.079, 1
  br label %.loopexit

35:                                               ; preds = %14
  %36 = icmp slt i32 %15, 0
  br i1 %36, label %37, label %40

37:                                               ; preds = %35
  %38 = add i32 %.05676, 6
  %39 = add i32 %.079, 6
  br label %.loopexit

40:                                               ; preds = %35
  %41 = add i32 %15, %.05676
  %42 = add i32 %11, %.079
  br label %.loopexit

.loopexit:                                        ; preds = %.preheader.preheader, %37, %40, %21, %32, %29, %24
  %.258 = phi i32 [ 0, %21 ], [ %25, %24 ], [ %30, %29 ], [ %33, %32 ], [ %38, %37 ], [ %41, %40 ], [ %sub, %.preheader.preheader ]
  %.255 = phi i32 [ %spec.select, %21 ], [ %.05377, %24 ], [ %.05377, %29 ], [ %.05377, %32 ], [ %.05377, %37 ], [ %.05377, %40 ], [ %.05377, %.preheader.preheader ]
  %.152 = phi i32 [ %22, %21 ], [ %.05178, %24 ], [ %.05178, %29 ], [ %.05178, %32 ], [ %.05178, %37 ], [ %.05178, %40 ], [ %.05178, %.preheader.preheader ]
  %.2 = phi i32 [ %23, %21 ], [ %26, %24 ], [ %31, %29 ], [ %34, %32 ], [ %39, %37 ], [ %42, %40 ], [ %sub89, %.preheader.preheader ]
  %43 = sub i64 %.06074, %12
  %44 = getelementptr inbounds i8, ptr %.05975, i64 %12
  %45 = load i8, ptr %44, align 1
  %46 = icmp ne i8 %45, 0
  %47 = icmp ne i64 %43, 0
  %48 = select i1 %46, i1 %47, i1 false
  br i1 %48, label %.lr.ph, label %._crit_edge.loopexit, !llvm.loop !4

._crit_edge.loopexit:                             ; preds = %.lr.ph, %.loopexit
  %.056.lcssa.ph = phi i32 [ %.258, %.loopexit ], [ %.05676, %.lr.ph ]
  %.053.lcssa.ph = phi i32 [ %.255, %.loopexit ], [ %.05377, %.lr.ph ]
  %.051.lcssa.ph = phi i32 [ %.152, %.loopexit ], [ %.05178, %.lr.ph ]
  %.0.lcssa.ph = phi i32 [ %.2, %.loopexit ], [ %.079, %.lr.ph ]
  %49 = add i32 %.0.lcssa.ph, 1
  br label %._crit_edge

._crit_edge:                                      ; preds = %._crit_edge.loopexit, %6
  %.056.lcssa = phi i32 [ 0, %6 ], [ %.056.lcssa.ph, %._crit_edge.loopexit ]
  %.053.lcssa = phi i32 [ 0, %6 ], [ %.053.lcssa.ph, %._crit_edge.loopexit ]
  %.051.lcssa = phi i32 [ 1, %6 ], [ %.051.lcssa.ph, %._crit_edge.loopexit ]
  %.0.lcssa = phi i32 [ 1, %6 ], [ %49, %._crit_edge.loopexit ]
  %.not69 = icmp eq ptr %3, null
  br i1 %.not69, label %51, label %50

50:                                               ; preds = %._crit_edge
  %spec.select72 = tail call i32 @llvm.smax.i32(i32 %.056.lcssa, i32 %.053.lcssa)
  store i32 %spec.select72, ptr %3, align 4
  br label %51

51:                                               ; preds = %50, %._crit_edge
  %.not70 = icmp eq ptr %4, null
  br i1 %.not70, label %53, label %52

52:                                               ; preds = %51
  store i32 %.051.lcssa, ptr %4, align 4
  br label %53

53:                                               ; preds = %52, %51
  %.not71 = icmp eq ptr %5, null
  br i1 %.not71, label %55, label %54

54:                                               ; preds = %53
  store i32 %.0.lcssa, ptr %5, align 4
  br label %55

55:                                               ; preds = %54, %53
  ret void
}